target datalayout = "e-m:e-p270:32:32-p271:32:32-p272:64:64-i64:64-i128:128-f80:128-n8:16:32:64-S128"
target triple = "x86_64-unknown-linux-gnu"

%"class.absl::NoDestructor" = type { %"class.absl::NoDestructor<absl::log_internal::(anonymous namespace)::GlobalLogSinkSet>::PlacementImpl" }
%"class.absl::NoDestructor<absl::log_internal::(anonymous namespace)::GlobalLogSinkSet>::PlacementImpl" = type { [32 x i8] }

@_ZZN4absl12log_internal12_GLOBAL__N_111GlobalSinksEvE12global_sinks = internal global %"class.absl::NoDestructor" zeroinitializer, align 8
@_ZGVZN4absl12log_internal12_GLOBAL__N_111GlobalSinksEvE12global_sinks = internal global i64 0, align 8

; Function Attrs: mustprogress nounwind uwtable
define internal noundef ptr @_ZSt7launderIN4absl12log_internal12_GLOBAL__N_116GlobalLogSinkSetEEPT_S5_(ptr noundef %__p) #1 {
entry:
  %__p.addr = alloca ptr, align 8
  store ptr %__p, ptr %__p.addr, align 8
  %0 = load ptr, ptr %__p.addr, align 8
  ret ptr %0
}

; Function Attrs: mustprogress nounwind uwtable
define internal noundef ptr @_ZN4absl12NoDestructorINS_12log_internal12_GLOBAL__N_116GlobalLogSinkSetEE13PlacementImpl7LaunderIS3_EEPT_S8_(ptr noundef %p) #1 align 2 {
entry:
  %p.addr = alloca ptr, align 8
  store ptr %p, ptr %p.addr, align 8
  %0 = load ptr, ptr %p.addr, align 8
  %call = call noundef ptr @_ZSt7launderIN4absl12log_internal12_GLOBAL__N_116GlobalLogSinkSetEEPT_S5_(ptr noundef %0) #4
  ret ptr %call
}

; Function Attrs: mustprogress uwtable
define internal noundef ptr @_ZN4absl12NoDestructorINS_12log_internal12_GLOBAL__N_116GlobalLogSinkSetEE13PlacementImpl3getEv(ptr noundef nonnull align 8 dereferenceable(32) %this) #0 align 2 {
entry:
  %this.addr = alloca ptr, align 8
  store ptr %this, ptr %this.addr, align 8
  %this1 = load ptr, ptr %this.addr, align 8
  %space_ = getelementptr inbounds %"class.absl::NoDestructor<absl::log_internal::(anonymous namespace)::GlobalLogSinkSet>::PlacementImpl", ptr %this1, i32 0, i32 0
  %call = call noundef ptr @_ZN4absl12NoDestructorINS_12log_internal12_GLOBAL__N_116GlobalLogSinkSetEE13PlacementImpl7LaunderIS3_EEPT_S8_(ptr noundef %space_)
  ret ptr %call
}

; Function Attrs: mustprogress uwtable
define internal noundef ptr @_ZN4absl12NoDestructorINS_12log_internal12_GLOBAL__N_116GlobalLogSinkSetEE3getEv(ptr noundef nonnull align 8 dereferenceable(32) %this) #0 align 2 {
entry:
  %this.addr = alloca ptr, align 8
  store ptr %this, ptr %this.addr, align 8
  %this1 = load ptr, ptr %this.addr, align 8
  %impl_ = getelementptr inbounds %"class.absl::NoDestructor", ptr %this1, i32 0, i32 0
  %call = call noundef ptr @_ZN4absl12NoDestructorINS_12log_internal12_GLOBAL__N_116GlobalLogSinkSetEE13PlacementImpl3getEv(ptr noundef nonnull align 8 dereferenceable(32) %impl_)
  ret ptr %call
}

; Function Attrs: mustprogress uwtable
define internal noundef nonnull align 8 dereferenceable(32) ptr @_ZN4absl12NoDestructorINS_12log_internal12_GLOBAL__N_116GlobalLogSinkSetEEdeEv(ptr noundef nonnull align 8 dereferenceable(32) %this) #0 align 2 {
entry:
  %this.addr = alloca ptr, align 8
  store ptr %this, ptr %this.addr, align 8
  %this1 = load ptr, ptr %this.addr, align 8
  %call = call noundef ptr @_ZN4absl12NoDestructorINS_12log_internal12_GLOBAL__N_116GlobalLogSinkSetEE3getEv(ptr noundef nonnull align 8 dereferenceable(32) %this1)
  ret ptr %call
}

; Function Attrs: mustprogress uwtable
define internal noundef nonnull align 8 dereferenceable(32) ptr @_ZN4absl12log_internal12_GLOBAL__N_111GlobalSinksEv() #0 personality ptr @__gxx_personality_v0 {
entry:
  %exn.slot = alloca ptr, align 8
  %ehselector.slot = alloca i32, align 4
  %0 = load atomic i8, ptr @_ZGVZN4absl12log_internal12_GLOBAL__N_111GlobalSinksEvE12global_sinks acquire, align 8
  %guard.uninitialized = icmp eq i8 %0, 0
  br i1 %guard.uninitialized, label %init.check, label %init.end, !prof !5

init.check:                                       ; preds = %entry
  %1 = call i32 @__cxa_guard_acquire(ptr @_ZGVZN4absl12log_internal12_GLOBAL__N_111GlobalSinksEvE12global_sinks) #4
  %tobool = icmp ne i32 %1, 0
  br i1 %tobool, label %init, label %init.end

init:                                             ; preds = %init.check
  invoke void @_ZN4absl12NoDestructorINS_12log_internal12_GLOBAL__N_116GlobalLogSinkSetEEC2IJETnNSt9enable_ifIXntsr3std7is_sameIFvDpRNSt5decayIT_E4typeEEFvRS4_EEE5valueEiE4typeELi0EEEDpOS8_(ptr noundef nonnull align 8 dereferenceable(32) @_ZZN4absl12log_internal12_GLOBAL__N_111GlobalSinksEvE12global_sinks)
          to label %invoke.cont unwind label %lpad

invoke.cont:                                      ; preds = %init
  call void @__cxa_guard_release(ptr @_ZGVZN4absl12log_internal12_GLOBAL__N_111GlobalSinksEvE12global_sinks) #4
  br label %init.end

init.end:                                         ; preds = %invoke.cont, %init.check, %entry
  %call = call noundef nonnull align 8 dereferenceable(32) ptr @_ZN4absl12NoDestructorINS_12log_internal12_GLOBAL__N_116GlobalLogSinkSetEEdeEv(ptr noundef nonnull align 8 dereferenceable(32) @_ZZN4absl12log_internal12_GLOBAL__N_111GlobalSinksEvE12global_sinks)
  ret ptr %call

lpad:                                             ; preds = %init
  %2 = landingpad { ptr, i32 }
          cleanup
  %3 = extractvalue { ptr, i32 } %2, 0
  store ptr %3, ptr %exn.slot, align 8
  %4 = extractvalue { ptr, i32 } %2, 1
  store i32 %4, ptr %ehselector.slot, align 4
  call void @__cxa_guard_abort(ptr @_ZGVZN4absl12log_internal12_GLOBAL__N_111GlobalSinksEvE12global_sinks) #4
  br label %eh.resume

eh.resume:                                        ; preds = %lpad
  %exn = load ptr, ptr %exn.slot, align 8
  %sel = load i32, ptr %ehselector.slot, align 4
  %lpad.val = insertvalue { ptr, i32 } poison, ptr %exn, 0
  %lpad.val1 = insertvalue { ptr, i32 } %lpad.val, i32 %sel, 1
  resume { ptr, i32 } %lpad.val1
}

; Function Attrs: mustprogress uwtable
define dso_local void @_ZN4absl12log_internal10AddLogSinkEPNS_7LogSinkE(ptr noundef %sink) #0 {
entry:
  %sink.addr = alloca ptr, align 8
  store ptr %sink, ptr %sink.addr, align 8
  %call = call noundef nonnull align 8 dereferenceable(32) ptr @_ZN4absl12log_internal12_GLOBAL__N_111GlobalSinksEv()
  %0 = load ptr, ptr %sink.addr, align 8
  call void @_ZN4absl12log_internal12_GLOBAL__N_116GlobalLogSinkSet10AddLogSinkEPNS_7LogSinkE(ptr noundef nonnull align 8 dereferenceable(32) %call, ptr noundef %0)
  ret void
}