; Function Attrs: mustprogress uwtable
define dso_local void @_ZN4absl12log_internal10AddLogSinkEPNS_7LogSinkE(ptr noundef %sink) local_unnamed_addr #1 personality ptr @__gxx_personality_v0 {
entry:
  %0 = load atomic i8, ptr @_ZGVZN4absl12log_internal12_GLOBAL__N_111GlobalSinksEvE12global_sinks acquire, align 8
  %guard.uninitialized.i = icmp eq i8 %0, 0
  br i1 %guard.uninitialized.i, label %init.check.i, label %_ZN4absl12log_internal12_GLOBAL__N_111GlobalSinksEv.exit, !prof !5

init.check.i:                                     ; preds = %entry
  %1 = tail call i32 @__cxa_guard_acquire(ptr nonnull @_ZGVZN4absl12log_internal12_GLOBAL__N_111GlobalSinksEvE12global_sinks) #17
  %tobool.not.i = icmp eq i32 %1, 0
  br i1 %tobool.not.i, label %_ZN4absl12log_internal12_GLOBAL__N_111GlobalSinksEv.exit, label %init.i

init.i:                                           ; preds = %init.check.i
  invoke fastcc void @_ZN4absl12NoDestructorINS_12log_internal12_GLOBAL__N_116GlobalLogSinkSetEEC2IJETnNSt9enable_ifIXntsr3std7is_sameIFvDpRNSt5decayIT_E4typeEEFvRS4_EEE5valueEiE4typeELi0EEEDpOS8_()
          to label %invoke.cont.i unwind label %lpad.i

invoke.cont.i:                                    ; preds = %init.i
  tail call void @__cxa_guard_release(ptr nonnull @_ZGVZN4absl12log_internal12_GLOBAL__N_111GlobalSinksEvE12global_sinks) #17
  br label %_ZN4absl12log_internal12_GLOBAL__N_111GlobalSinksEv.exit

lpad.i:                                           ; preds = %init.i
  %2 = landingpad { ptr, i32 }
          cleanup
  tail call void @__cxa_guard_abort(ptr nonnull @_ZGVZN4absl12log_internal12_GLOBAL__N_111GlobalSinksEvE12global_sinks) #17
  resume { ptr, i32 } %2

_ZN4absl12log_internal12_GLOBAL__N_111GlobalSinksEv.exit: ; preds = %entry, %init.check.i, %invoke.cont.i
  tail call fastcc void @_ZN4absl12log_internal12_GLOBAL__N_116GlobalLogSinkSet10AddLogSinkEPNS_7LogSinkE(ptr noundef %sink)
  ret void
}